; ModuleID = 'source-C-CXX/6/668.c'
source_filename = "source-C-CXX/6/668.c"
target datalayout = "e-m:e-p270:32:32-p271:32:32-p272:64:64-i64:64-f80:128-n8:16:32:64-S128"
target triple = "x86_64-pc-linux-gnu"

@.str = private unnamed_addr constant [7 x i8] c"%s%s%s\00", align 1
@.str.1 = private unnamed_addr constant [3 x i8] c"%s\00", align 1

; Function Attrs: nofree nounwind sspstrong uwtable
define dso_local i32 @main() local_unnamed_addr #0 {
  %1 = alloca [256 x i8], align 16
  %2 = alloca [256 x i8], align 16
  %3 = alloca [256 x i8], align 16
  %4 = getelementptr inbounds [256 x i8], [256 x i8]* %1, i64 0, i64 0
  call void @llvm.lifetime.start.p0i8(i64 256, i8* nonnull %4) #5
  %5 = getelementptr inbounds [256 x i8], [256 x i8]* %2, i64 0, i64 0
  call void @llvm.lifetime.start.p0i8(i64 256, i8* nonnull %5) #5
  %6 = getelementptr inbounds [256 x i8], [256 x i8]* %3, i64 0, i64 0
  call void @llvm.lifetime.start.p0i8(i64 256, i8* nonnull %6) #5
  %7 = call i32 (i8*, ...) @__isoc99_scanf(i8* getelementptr inbounds ([7 x i8], [7 x i8]* @.str, i64 0, i64 0), i8* nonnull %4, i8* nonnull %5, i8* nonnull %6)
  %8 = call i64 @strlen(i8* noundef nonnull %4) #6
  %9 = trunc i64 %8 to i32
  %10 = call i64 @strlen(i8* noundef nonnull %5) #6
  %11 = trunc i64 %10 to i32
  %12 = sub nsw i32 %9, %11
  %13 = icmp slt i32 %12, 0
  br i1 %13, label %46, label %14

14:                                               ; preds = %0
  %15 = icmp sgt i32 %11, 0
  br i1 %15, label %16, label %56

16:                                               ; preds = %14
  %17 = zext i32 %12 to i64
  %18 = add i64 %8, 1
  %19 = sub i64 %18, %10
  %20 = and i64 %19, 4294967295
  %21 = and i64 %10, 4294967295
  br label %22

22:                                               ; preds = %16, %36
  %23 = phi i64 [ 0, %16 ], [ %37, %36 ]
  %24 = phi i1 [ false, %16 ], [ %38, %36 ]
  br label %27

25:                                               ; preds = %27
  %26 = icmp eq i64 %35, %21
  br i1 %26, label %40, label %27, !llvm.loop !5

27:                                               ; preds = %22, %25
  %28 = phi i64 [ 0, %22 ], [ %35, %25 ]
  %29 = add nuw nsw i64 %28, %23
  %30 = getelementptr inbounds [256 x i8], [256 x i8]* %1, i64 0, i64 %29
  %31 = load i8, i8* %30, align 1, !tbaa !7
  %32 = getelementptr inbounds [256 x i8], [256 x i8]* %2, i64 0, i64 %28
  %33 = load i8, i8* %32, align 1, !tbaa !7
  %34 = icmp eq i8 %31, %33
  %35 = add nuw nsw i64 %28, 1
  br i1 %34, label %25, label %36

36:                                               ; preds = %27
  %37 = add nuw nsw i64 %23, 1
  %38 = icmp uge i64 %23, %17
  %39 = icmp eq i64 %37, %20
  br i1 %39, label %46, label %22, !llvm.loop !10

40:                                               ; preds = %25
  %41 = trunc i64 %23 to i32
  br i1 %24, label %46, label %42

42:                                               ; preds = %40
  %43 = icmp eq i32 %41, 0
  br i1 %43, label %56, label %44

44:                                               ; preds = %42
  %45 = and i64 %23, 4294967295
  br label %48

46:                                               ; preds = %36, %0, %40
  %47 = call i32 (i8*, ...) @printf(i8* nonnull dereferenceable(1) getelementptr inbounds ([3 x i8], [3 x i8]* @.str.1, i64 0, i64 0), i8* nonnull %4)
  br label %73

48:                                               ; preds = %44, %48
  %49 = phi i64 [ 0, %44 ], [ %54, %48 ]
  %50 = getelementptr inbounds [256 x i8], [256 x i8]* %1, i64 0, i64 %49
  %51 = load i8, i8* %50, align 1, !tbaa !7
  %52 = sext i8 %51 to i32
  %53 = call i32 @putchar(i32 %52)
  %54 = add nuw nsw i64 %49, 1
  %55 = icmp eq i64 %54, %45
  br i1 %55, label %56, label %48, !llvm.loop !11

56:                                               ; preds = %48, %14, %42
  %57 = phi i32 [ 0, %42 ], [ 0, %14 ], [ %41, %48 ]
  %58 = call i32 (i8*, ...) @printf(i8* nonnull dereferenceable(1) getelementptr inbounds ([3 x i8], [3 x i8]* @.str.1, i64 0, i64 0), i8* nonnull %6)
  %59 = add i32 %57, %11
  %60 = icmp slt i32 %59, %9
  br i1 %60, label %61, label %73

61:                                               ; preds = %56
  %62 = sext i32 %59 to i64
  %63 = shl i64 %8, 32
  %64 = ashr exact i64 %63, 32
  br label %65

65:                                               ; preds = %61, %65
  %66 = phi i64 [ %62, %61 ], [ %71, %65 ]
  %67 = getelementptr inbounds [256 x i8], [256 x i8]* %1, i64 0, i64 %66
  %68 = load i8, i8* %67, align 1, !tbaa !7
  %69 = sext i8 %68 to i32
  %70 = call i32 @putchar(i32 %69)
  %71 = add nsw i64 %66, 1
  %72 = icmp slt i64 %71, %64
  br i1 %72, label %65, label %73, !llvm.loop !12

73:                                               ; preds = %65, %56, %46
  call void @llvm.lifetime.end.p0i8(i64 256, i8* nonnull %6) #5
  call void @llvm.lifetime.end.p0i8(i64 256, i8* nonnull %5) #5
  call void @llvm.lifetime.end.p0i8(i64 256, i8* nonnull %4) #5
  ret i32 0
}

; Function Attrs: argmemonly mustprogress nofree nosync nounwind willreturn
declare void @llvm.lifetime.start.p0i8(i64 immarg, i8* nocapture) #1

; Function Attrs: nofree nounwind
declare noundef i32 @__isoc99_scanf(i8* nocapture noundef readonly, ...) local_unnamed_addr #2

; Function Attrs: argmemonly mustprogress nofree nounwind readonly willreturn
declare i64 @strlen(i8* nocapture) local_unnamed_addr #3

; Function Attrs: nofree nounwind
declare noundef i32 @printf(i8* nocapture noundef readonly, ...) local_unnamed_addr #2

; Function Attrs: argmemonly mustprogress nofree nosync nounwind willreturn
declare void @llvm.lifetime.end.p0i8(i64 immarg, i8* nocapture) #1

; Function Attrs: nofree nounwind
declare noundef i32 @putchar(i32 noundef) local_unnamed_addr #4


!llvm.module.flags = !{!0, !1, !2, !3}
!llvm.ident = !{!4}

!0 = !{i32 1, !"wchar_size", i32 4}
!1 = !{i32 7, !"PIC Level", i32 2}
!2 = !{i32 7, !"PIE Level", i32 2}
!3 = !{i32 7, !"uwtable", i32 1}
!4 = !{!"clang version 13.0.0"}
!5 = distinct !{!5, !6}
!6 = !{!"llvm.loop.mustprogress"}
!7 = !{!8, !8, i64 0}
!8 = !{!"omnipotent char", !9, i64 0}
!9 = !{!"Simple C/C++ TBAA"}
!10 = distinct !{!10, !6}
!11 = distinct !{!11, !6}
!12 = distinct !{!12, !6}
